target datalayout = "e-m:e-p270:32:32-p271:32:32-p272:64:64-i64:64-i128:128-f80:128-n8:16:32:64-S128"
target triple = "x86_64-pc-linux-gnu"

%"struct.cv::Ptr" = type { %"class.std::shared_ptr" }
%"class.std::shared_ptr" = type { %"class.std::__shared_ptr" }
%"class.std::__shared_ptr" = type { ptr, %"class.std::__shared_count" }
%"class.std::__shared_count" = type { ptr }

; Function Attrs: mustprogress nounwind uwtable
define linkonce_odr hidden noundef ptr @_ZNKSt12__shared_ptrIN2cv8ximgproc22AdaptiveManifoldFilterELN9__gnu_cxx12_Lock_policyE2EE3getEv(ptr noundef nonnull align 8 dereferenceable(16) %0) #8 comdat align 2 {
  %2 = alloca ptr, align 8
  store ptr %0, ptr %2, align 8, !tbaa !46
  %3 = load ptr, ptr %2, align 8
  %4 = getelementptr inbounds nuw %"class.std::__shared_ptr", ptr %3, i32 0, i32 0
  %5 = load ptr, ptr %4, align 8, !tbaa !276
  ret ptr %5
}

; Function Attrs: mustprogress nounwind uwtable
define linkonce_odr hidden noundef ptr @_ZNK2cv3PtrINS_8ximgproc22AdaptiveManifoldFilterEEptEv(ptr noundef nonnull align 8 dereferenceable(16) %0) #8 comdat align 2 {
  %2 = alloca ptr, align 8
  store ptr %0, ptr %2, align 8, !tbaa !40
  %3 = load ptr, ptr %2, align 8
  %4 = call noundef ptr @_ZNKSt12__shared_ptrIN2cv8ximgproc22AdaptiveManifoldFilterELN9__gnu_cxx12_Lock_policyE2EE3getEv(ptr noundef nonnull align 8 dereferenceable(16) %3) #3
  ret ptr %4
}

; Function Attrs: mustprogress uwtable
define void @_ZN2cv8ximgproc8amFilterERKNS_11_InputArrayES3_RKNS_12_OutputArrayEddb(ptr noundef nonnull align 8 dereferenceable(24) %0, ptr noundef nonnull align 8 dereferenceable(24) %1, ptr noundef nonnull align 8 dereferenceable(24) %2, double noundef %3, double noundef %4, i1 noundef zeroext %5) #4 personality ptr @__gxx_personality_v0 {
  %7 = alloca ptr, align 8
  %8 = alloca ptr, align 8
  %9 = alloca ptr, align 8
  %10 = alloca double, align 8
  %11 = alloca double, align 8
  %12 = alloca i8, align 1
  %13 = alloca %"struct.cv::Ptr", align 8
  %14 = alloca ptr, align 8
  %15 = alloca i32, align 4
  store ptr %0, ptr %7, align 8, !tbaa !48
  store ptr %1, ptr %8, align 8, !tbaa !48
  store ptr %2, ptr %9, align 8, !tbaa !50
  store double %3, ptr %10, align 8, !tbaa !42
  store double %4, ptr %11, align 8, !tbaa !42
  %16 = zext i1 %5 to i8
  store i8 %16, ptr %12, align 1, !tbaa !43
  call void @llvm.lifetime.start.p0(i64 16, ptr %13) #3
  %17 = load double, ptr %10, align 8, !tbaa !42
  %18 = load double, ptr %11, align 8, !tbaa !42
  %19 = load i8, ptr %12, align 1, !tbaa !43, !range !44, !noundef !45
  %20 = trunc i8 %19 to i1
  call void @_ZN2cv8ximgproc14createAMFilterEddb(ptr dead_on_unwind writable sret(%"struct.cv::Ptr") align 8 %13, double noundef %17, double noundef %18, i1 noundef zeroext %20)
  %21 = call noundef ptr @_ZNK2cv3PtrINS_8ximgproc22AdaptiveManifoldFilterEEptEv(ptr noundef nonnull align 8 dereferenceable(16) %13) #3
  %22 = load ptr, ptr %8, align 8, !tbaa !48
  %23 = load ptr, ptr %9, align 8, !tbaa !50
  %24 = load ptr, ptr %7, align 8, !tbaa !48
  %25 = load ptr, ptr %21, align 8, !tbaa !8
  %26 = getelementptr inbounds ptr, ptr %25, i64 8
  %27 = load ptr, ptr %26, align 8
  invoke void %27(ptr noundef nonnull align 8 dereferenceable(8) %21, ptr noundef nonnull align 8 dereferenceable(24) %22, ptr noundef nonnull align 8 dereferenceable(24) %23, ptr noundef nonnull align 8 dereferenceable(24) %24)
          to label %28 unwind label %29

28:                                               ; preds = %6
  call void @_ZNSt12__shared_ptrIN2cv8ximgproc22AdaptiveManifoldFilterELN9__gnu_cxx12_Lock_policyE2EED2Ev(ptr noundef nonnull align 8 dereferenceable(16) %13) #3
  call void @llvm.lifetime.end.p0(i64 16, ptr %13) #3
  ret void

29:                                               ; preds = %6
  %30 = landingpad { ptr, i32 }
          cleanup
  %31 = extractvalue { ptr, i32 } %30, 0
  store ptr %31, ptr %14, align 8
  %32 = extractvalue { ptr, i32 } %30, 1
  store i32 %32, ptr %15, align 4
  call void @_ZNSt12__shared_ptrIN2cv8ximgproc22AdaptiveManifoldFilterELN9__gnu_cxx12_Lock_policyE2EED2Ev(ptr noundef nonnull align 8 dereferenceable(16) %13) #3
  call void @llvm.lifetime.end.p0(i64 16, ptr %13) #3
  br label %33

33:                                               ; preds = %29
  %34 = load ptr, ptr %14, align 8
  %35 = load i32, ptr %15, align 4
  %36 = insertvalue { ptr, i32 } poison, ptr %34, 0
  %37 = insertvalue { ptr, i32 } %36, i32 %35, 1
  resume { ptr, i32 } %37
}